; Function Attrs: inlinehint nounwind uwtable
define internal fastcc zeroext i1 @pmix_check_cli_option(ptr noundef %0, ptr noundef %1) unnamed_addr #14 {
  %3 = tail call ptr @strchr(ptr noundef nonnull dereferenceable(1) %1, i32 noundef 45) #24
  %.not = icmp eq ptr %3, null
  br i1 %.not, label %4, label %6

4:                                                ; preds = %2
  %5 = tail call ptr @strchr(ptr noundef nonnull dereferenceable(1) %0, i32 noundef 45) #24
  %.not46 = icmp eq ptr %5, null
  br i1 %.not46, label %30, label %6

6:                                                ; preds = %4, %2
  %7 = tail call ptr @PMIx_Argv_split(ptr noundef %0, i32 noundef 45) #23
  %8 = tail call ptr @PMIx_Argv_split(ptr noundef nonnull %1, i32 noundef 45) #23
  %9 = tail call i32 @PMIx_Argv_count(ptr noundef %7) #23
  %10 = tail call i32 @PMIx_Argv_count(ptr noundef %8) #23
  %11 = icmp sgt i32 %9, %10
  br i1 %11, label %13, label %.preheader

.preheader:                                       ; preds = %6
  %12 = load ptr, ptr %7, align 8, !tbaa !24
  %.not4751 = icmp eq ptr %12, null
  br i1 %.not4751, label %.critedge, label %.lr.ph

13:                                               ; preds = %6
  tail call void @PMIx_Argv_free(ptr noundef %7) #23
  tail call void @PMIx_Argv_free(ptr noundef %8) #23
  br label %36

.lr.ph:                                           ; preds = %.preheader, %23
  %14 = phi ptr [ %26, %23 ], [ %12, %.preheader ]
  %.04352 = phi i64 [ %24, %23 ], [ 0, %.preheader ]
  %15 = getelementptr inbounds nuw ptr, ptr %8, i64 %.04352
  %16 = load ptr, ptr %15, align 8, !tbaa !24
  %.not48 = icmp eq ptr %16, null
  br i1 %.not48, label %.critedge.loopexit, label %17

17:                                               ; preds = %.lr.ph
  %18 = tail call i64 @strlen(ptr noundef nonnull dereferenceable(1) %14) #24
  %19 = tail call i64 @strlen(ptr noundef nonnull dereferenceable(1) %16) #24
  %20 = tail call i64 @llvm.umin.i64(i64 %18, i64 %19)
  %21 = tail call i32 @strncasecmp(ptr noundef nonnull %14, ptr noundef nonnull %16, i64 noundef %20) #24
  %22 = icmp eq i32 %21, 0
  br i1 %22, label %23, label %27

23:                                               ; preds = %17
  %24 = add i64 %.04352, 1
  %25 = getelementptr inbounds nuw ptr, ptr %7, i64 %24
  %26 = load ptr, ptr %25, align 8, !tbaa !24
  %.not47 = icmp eq ptr %26, null
  br i1 %.not47, label %.critedge.loopexit, label %.lr.ph, !llvm.loop !184

27:                                               ; preds = %17
  tail call void @PMIx_Argv_free(ptr noundef nonnull %7) #23
  tail call void @PMIx_Argv_free(ptr noundef nonnull %8) #23
  br label %36

.critedge.loopexit:                               ; preds = %23, %.lr.ph
  %.0.lcssa.ph.in = phi i64 [ %.04352, %.lr.ph ], [ %24, %23 ]
  %.0.lcssa.ph = trunc i64 %.0.lcssa.ph.in to i32
  br label %.critedge

.critedge:                                        ; preds = %.critedge.loopexit, %.preheader
  %.0.lcssa = phi i32 [ 0, %.preheader ], [ %.0.lcssa.ph, %.critedge.loopexit ]
  tail call void @PMIx_Argv_free(ptr noundef nonnull %7) #23
  tail call void @PMIx_Argv_free(ptr noundef %8) #23
  %28 = tail call i32 @PMIx_Argv_count(ptr noundef nonnull %7) #23
  %29 = icmp eq i32 %.0.lcssa, %28
  br label %36

30:                                               ; preds = %4
  %31 = tail call i64 @strlen(ptr noundef nonnull dereferenceable(1) %0) #24
  %32 = tail call i64 @strlen(ptr noundef nonnull dereferenceable(1) %1) #24
  %33 = tail call i64 @llvm.umin.i64(i64 %31, i64 %32)
  %34 = tail call i32 @strncasecmp(ptr noundef nonnull %0, ptr noundef nonnull %1, i64 noundef %33) #24
  %35 = icmp eq i32 %34, 0
  br label %36

36:                                               ; preds = %30, %.critedge, %27, %13
  %.042 = phi i1 [ false, %13 ], [ false, %27 ], [ %29, %.critedge ], [ %35, %30 ]
  ret i1 %.042
}